target datalayout = "e-m:e-p270:32:32-p271:32:32-p272:64:64-i64:64-i128:128-f80:128-n8:16:32:64-S128"
target triple = "x86_64-pc-linux-gnu"

%struct.mspack_system = type { ptr, ptr, ptr, ptr, ptr, ptr, ptr, ptr, ptr, ptr, ptr }
%struct.msszdd_decompressor_p = type { %struct.msszdd_decompressor, ptr, i32 }
%struct.msszdd_decompressor = type { ptr, ptr, ptr, ptr, ptr }
%struct.msszddd_header_p = type { %struct.msszddd_header, ptr }
%struct.msszddd_header = type { i32, i64, i8 }

@szdd_signature_expand = internal global [8 x i8] c"SZDD\88\F0'3", align 1
@szdd_signature_qbasic = internal global [8 x i8] c"SZ \88\F0'3\D1", align 1

; Function Attrs: nounwind uwtable
define internal i32 @szddd_read_headers(ptr noundef %0, ptr noundef %1, ptr noundef %2) #0 {
  %4 = alloca i32, align 4
  %5 = alloca ptr, align 8
  %6 = alloca ptr, align 8
  %7 = alloca ptr, align 8
  %8 = alloca [8 x i8], align 1
  %9 = alloca i32, align 4
  store ptr %0, ptr %5, align 8, !tbaa !3
  store ptr %1, ptr %6, align 8, !tbaa !27
  store ptr %2, ptr %7, align 8, !tbaa !29
  call void @llvm.lifetime.start.p0(i64 8, ptr %8) #4
  %10 = load ptr, ptr %5, align 8, !tbaa !3
  %11 = getelementptr inbounds nuw %struct.mspack_system, ptr %10, i32 0, i32 2
  %12 = load ptr, ptr %11, align 8, !tbaa !43
  %13 = load ptr, ptr %6, align 8, !tbaa !27
  %14 = getelementptr inbounds [8 x i8], ptr %8, i64 0, i64 0
  %15 = call i32 %12(ptr noundef %13, ptr noundef %14, i32 noundef 8)
  %16 = icmp ne i32 %15, 8
  br i1 %16, label %17, label %18

17:                                               ; preds = %3
  store i32 3, ptr %4, align 4
  store i32 1, ptr %9, align 4
  br label %115

18:                                               ; preds = %3
  %19 = getelementptr inbounds [8 x i8], ptr %8, i64 0, i64 0
  %20 = call i32 @memcmp(ptr noundef %19, ptr noundef @szdd_signature_expand, i64 noundef 8) #5
  %21 = icmp eq i32 %20, 0
  br i1 %21, label %22, label %69

22:                                               ; preds = %18
  %23 = load ptr, ptr %7, align 8, !tbaa !29
  %24 = getelementptr inbounds nuw %struct.msszddd_header, ptr %23, i32 0, i32 0
  store i32 0, ptr %24, align 8, !tbaa !39
  %25 = load ptr, ptr %5, align 8, !tbaa !3
  %26 = getelementptr inbounds nuw %struct.mspack_system, ptr %25, i32 0, i32 2
  %27 = load ptr, ptr %26, align 8, !tbaa !43
  %28 = load ptr, ptr %6, align 8, !tbaa !27
  %29 = getelementptr inbounds [8 x i8], ptr %8, i64 0, i64 0
  %30 = call i32 %27(ptr noundef %28, ptr noundef %29, i32 noundef 6)
  %31 = icmp ne i32 %30, 6
  br i1 %31, label %32, label %33

32:                                               ; preds = %22
  store i32 3, ptr %4, align 4
  store i32 1, ptr %9, align 4
  br label %115

33:                                               ; preds = %22
  %34 = getelementptr inbounds [8 x i8], ptr %8, i64 0, i64 0
  %35 = load i8, ptr %34, align 1, !tbaa !44
  %36 = zext i8 %35 to i32
  %37 = icmp ne i32 %36, 65
  br i1 %37, label %38, label %39

38:                                               ; preds = %33
  store i32 8, ptr %4, align 4
  store i32 1, ptr %9, align 4
  br label %115

39:                                               ; preds = %33
  %40 = getelementptr inbounds [8 x i8], ptr %8, i64 0, i64 1
  %41 = load i8, ptr %40, align 1, !tbaa !44
  %42 = load ptr, ptr %7, align 8, !tbaa !29
  %43 = getelementptr inbounds nuw %struct.msszddd_header, ptr %42, i32 0, i32 2
  store i8 %41, ptr %43, align 8, !tbaa !45
  %44 = getelementptr inbounds [8 x i8], ptr %8, i64 0, i64 2
  %45 = getelementptr inbounds i8, ptr %44, i64 3
  %46 = load i8, ptr %45, align 1, !tbaa !44
  %47 = zext i8 %46 to i32
  %48 = shl i32 %47, 24
  %49 = getelementptr inbounds [8 x i8], ptr %8, i64 0, i64 2
  %50 = getelementptr inbounds i8, ptr %49, i64 2
  %51 = load i8, ptr %50, align 1, !tbaa !44
  %52 = zext i8 %51 to i32
  %53 = shl i32 %52, 16
  %54 = or i32 %48, %53
  %55 = getelementptr inbounds [8 x i8], ptr %8, i64 0, i64 2
  %56 = getelementptr inbounds i8, ptr %55, i64 1
  %57 = load i8, ptr %56, align 1, !tbaa !44
  %58 = zext i8 %57 to i32
  %59 = shl i32 %58, 8
  %60 = or i32 %54, %59
  %61 = getelementptr inbounds [8 x i8], ptr %8, i64 0, i64 2
  %62 = getelementptr inbounds i8, ptr %61, i64 0
  %63 = load i8, ptr %62, align 1, !tbaa !44
  %64 = zext i8 %63 to i32
  %65 = or i32 %60, %64
  %66 = zext i32 %65 to i64
  %67 = load ptr, ptr %7, align 8, !tbaa !29
  %68 = getelementptr inbounds nuw %struct.msszddd_header, ptr %67, i32 0, i32 1
  store i64 %66, ptr %68, align 8, !tbaa !46
  br label %114

69:                                               ; preds = %18
  %70 = getelementptr inbounds [8 x i8], ptr %8, i64 0, i64 0
  %71 = call i32 @memcmp(ptr noundef %70, ptr noundef @szdd_signature_qbasic, i64 noundef 8) #5
  %72 = icmp eq i32 %71, 0
  br i1 %72, label %73, label %112

73:                                               ; preds = %69
  %74 = load ptr, ptr %7, align 8, !tbaa !29
  %75 = getelementptr inbounds nuw %struct.msszddd_header, ptr %74, i32 0, i32 0
  store i32 1, ptr %75, align 8, !tbaa !39
  %76 = load ptr, ptr %5, align 8, !tbaa !3
  %77 = getelementptr inbounds nuw %struct.mspack_system, ptr %76, i32 0, i32 2
  %78 = load ptr, ptr %77, align 8, !tbaa !43
  %79 = load ptr, ptr %6, align 8, !tbaa !27
  %80 = getelementptr inbounds [8 x i8], ptr %8, i64 0, i64 0
  %81 = call i32 %78(ptr noundef %79, ptr noundef %80, i32 noundef 4)
  %82 = icmp ne i32 %81, 4
  br i1 %82, label %83, label %84

83:                                               ; preds = %73
  store i32 3, ptr %4, align 4
  store i32 1, ptr %9, align 4
  br label %115

84:                                               ; preds = %73
  %85 = load ptr, ptr %7, align 8, !tbaa !29
  %86 = getelementptr inbounds nuw %struct.msszddd_header, ptr %85, i32 0, i32 2
  store i8 0, ptr %86, align 8, !tbaa !45
  %87 = getelementptr inbounds [8 x i8], ptr %8, i64 0, i64 0
  %88 = getelementptr inbounds i8, ptr %87, i64 3
  %89 = load i8, ptr %88, align 1, !tbaa !44
  %90 = zext i8 %89 to i32
  %91 = shl i32 %90, 24
  %92 = getelementptr inbounds [8 x i8], ptr %8, i64 0, i64 0
  %93 = getelementptr inbounds i8, ptr %92, i64 2
  %94 = load i8, ptr %93, align 1, !tbaa !44
  %95 = zext i8 %94 to i32
  %96 = shl i32 %95, 16
  %97 = or i32 %91, %96
  %98 = getelementptr inbounds [8 x i8], ptr %8, i64 0, i64 0
  %99 = getelementptr inbounds i8, ptr %98, i64 1
  %100 = load i8, ptr %99, align 1, !tbaa !44
  %101 = zext i8 %100 to i32
  %102 = shl i32 %101, 8
  %103 = or i32 %97, %102
  %104 = getelementptr inbounds [8 x i8], ptr %8, i64 0, i64 0
  %105 = getelementptr inbounds i8, ptr %104, i64 0
  %106 = load i8, ptr %105, align 1, !tbaa !44
  %107 = zext i8 %106 to i32
  %108 = or i32 %103, %107
  %109 = zext i32 %108 to i64
  %110 = load ptr, ptr %7, align 8, !tbaa !29
  %111 = getelementptr inbounds nuw %struct.msszddd_header, ptr %110, i32 0, i32 1
  store i64 %109, ptr %111, align 8, !tbaa !46
  br label %113

112:                                              ; preds = %69
  store i32 7, ptr %4, align 4
  store i32 1, ptr %9, align 4
  br label %115

113:                                              ; preds = %84
  br label %114

114:                                              ; preds = %113, %39
  store i32 0, ptr %4, align 4
  store i32 1, ptr %9, align 4
  br label %115

115:                                              ; preds = %114, %112, %83, %38, %32, %17
  call void @llvm.lifetime.end.p0(i64 8, ptr %8) #4
  %116 = load i32, ptr %4, align 4
  ret i32 %116
}

; Function Attrs: nounwind uwtable
define internal ptr @szddd_open(ptr noundef %0, ptr noundef %1) #0 {
  %3 = alloca ptr, align 8
  %4 = alloca ptr, align 8
  %5 = alloca ptr, align 8
  %6 = alloca ptr, align 8
  %7 = alloca ptr, align 8
  %8 = alloca ptr, align 8
  %9 = alloca ptr, align 8
  %10 = alloca i32, align 4
  store ptr %0, ptr %4, align 8, !tbaa !22
  store ptr %1, ptr %5, align 8, !tbaa !24
  call void @llvm.lifetime.start.p0(i64 8, ptr %6) #4
  %11 = load ptr, ptr %4, align 8, !tbaa !22
  store ptr %11, ptr %6, align 8, !tbaa !8
  call void @llvm.lifetime.start.p0(i64 8, ptr %7) #4
  call void @llvm.lifetime.start.p0(i64 8, ptr %8) #4
  call void @llvm.lifetime.start.p0(i64 8, ptr %9) #4
  %12 = load ptr, ptr %6, align 8, !tbaa !8
  %13 = icmp ne ptr %12, null
  br i1 %13, label %15, label %14

14:                                               ; preds = %2
  store ptr null, ptr %3, align 8
  store i32 1, ptr %10, align 4
  br label %78

15:                                               ; preds = %2
  %16 = load ptr, ptr %6, align 8, !tbaa !8
  %17 = getelementptr inbounds nuw %struct.msszdd_decompressor_p, ptr %16, i32 0, i32 1
  %18 = load ptr, ptr %17, align 8, !tbaa !20
  store ptr %18, ptr %8, align 8, !tbaa !3
  %19 = load ptr, ptr %8, align 8, !tbaa !3
  %20 = getelementptr inbounds nuw %struct.mspack_system, ptr %19, i32 0, i32 0
  %21 = load ptr, ptr %20, align 8, !tbaa !26
  %22 = load ptr, ptr %8, align 8, !tbaa !3
  %23 = load ptr, ptr %5, align 8, !tbaa !24
  %24 = call ptr %21(ptr noundef %22, ptr noundef %23, i32 noundef 0)
  store ptr %24, ptr %9, align 8, !tbaa !27
  %25 = load ptr, ptr %8, align 8, !tbaa !3
  %26 = getelementptr inbounds nuw %struct.mspack_system, ptr %25, i32 0, i32 7
  %27 = load ptr, ptr %26, align 8, !tbaa !10
  %28 = load ptr, ptr %8, align 8, !tbaa !3
  %29 = call ptr %27(ptr noundef %28, i64 noundef 32)
  store ptr %29, ptr %7, align 8, !tbaa !29
  %30 = load ptr, ptr %9, align 8, !tbaa !27
  %31 = icmp ne ptr %30, null
  br i1 %31, label %32, label %45

32:                                               ; preds = %15
  %33 = load ptr, ptr %7, align 8, !tbaa !29
  %34 = icmp ne ptr %33, null
  br i1 %34, label %35, label %45

35:                                               ; preds = %32
  %36 = load ptr, ptr %9, align 8, !tbaa !27
  %37 = load ptr, ptr %7, align 8, !tbaa !29
  %38 = getelementptr inbounds nuw %struct.msszddd_header_p, ptr %37, i32 0, i32 1
  store ptr %36, ptr %38, align 8, !tbaa !31
  %39 = load ptr, ptr %8, align 8, !tbaa !3
  %40 = load ptr, ptr %9, align 8, !tbaa !27
  %41 = load ptr, ptr %7, align 8, !tbaa !29
  %42 = call i32 @szddd_read_headers(ptr noundef %39, ptr noundef %40, ptr noundef %41)
  %43 = load ptr, ptr %6, align 8, !tbaa !8
  %44 = getelementptr inbounds nuw %struct.msszdd_decompressor_p, ptr %43, i32 0, i32 2
  store i32 %42, ptr %44, align 8, !tbaa !21
  br label %58

45:                                               ; preds = %32, %15
  %46 = load ptr, ptr %9, align 8, !tbaa !27
  %47 = icmp ne ptr %46, null
  br i1 %47, label %51, label %48

48:                                               ; preds = %45
  %49 = load ptr, ptr %6, align 8, !tbaa !8
  %50 = getelementptr inbounds nuw %struct.msszdd_decompressor_p, ptr %49, i32 0, i32 2
  store i32 2, ptr %50, align 8, !tbaa !21
  br label %51

51:                                               ; preds = %48, %45
  %52 = load ptr, ptr %7, align 8, !tbaa !29
  %53 = icmp ne ptr %52, null
  br i1 %53, label %57, label %54

54:                                               ; preds = %51
  %55 = load ptr, ptr %6, align 8, !tbaa !8
  %56 = getelementptr inbounds nuw %struct.msszdd_decompressor_p, ptr %55, i32 0, i32 2
  store i32 6, ptr %56, align 8, !tbaa !21
  br label %57

57:                                               ; preds = %54, %51
  br label %58

58:                                               ; preds = %57, %35
  %59 = load ptr, ptr %6, align 8, !tbaa !8
  %60 = getelementptr inbounds nuw %struct.msszdd_decompressor_p, ptr %59, i32 0, i32 2
  %61 = load i32, ptr %60, align 8, !tbaa !21
  %62 = icmp ne i32 %61, 0
  br i1 %62, label %63, label %76

63:                                               ; preds = %58
  %64 = load ptr, ptr %9, align 8, !tbaa !27
  %65 = icmp ne ptr %64, null
  br i1 %65, label %66, label %71

66:                                               ; preds = %63
  %67 = load ptr, ptr %8, align 8, !tbaa !3
  %68 = getelementptr inbounds nuw %struct.mspack_system, ptr %67, i32 0, i32 1
  %69 = load ptr, ptr %68, align 8, !tbaa !35
  %70 = load ptr, ptr %9, align 8, !tbaa !27
  call void %69(ptr noundef %70)
  br label %71

71:                                               ; preds = %66, %63
  %72 = load ptr, ptr %8, align 8, !tbaa !3
  %73 = getelementptr inbounds nuw %struct.mspack_system, ptr %72, i32 0, i32 8
  %74 = load ptr, ptr %73, align 8, !tbaa !36
  %75 = load ptr, ptr %7, align 8, !tbaa !29
  call void %74(ptr noundef %75)
  store ptr null, ptr %7, align 8, !tbaa !29
  br label %76

76:                                               ; preds = %71, %58
  %77 = load ptr, ptr %7, align 8, !tbaa !29
  store ptr %77, ptr %3, align 8
  store i32 1, ptr %10, align 4
  br label %78

78:                                               ; preds = %76, %14
  call void @llvm.lifetime.end.p0(i64 8, ptr %9) #4
  call void @llvm.lifetime.end.p0(i64 8, ptr %8) #4
  call void @llvm.lifetime.end.p0(i64 8, ptr %7) #4
  call void @llvm.lifetime.end.p0(i64 8, ptr %6) #4
  %79 = load ptr, ptr %3, align 8
  ret ptr %79
}