; Function Attrs: nounwind uwtable
define internal ptr @szddd_open(ptr noundef %0, ptr noundef %1) #0 {
  %3 = alloca [8 x i8], align 4
  %.not = icmp eq ptr %0, null
  br i1 %.not, label %56, label %4

4:                                                ; preds = %2
  %5 = getelementptr inbounds nuw i8, ptr %0, i64 40
  %6 = load ptr, ptr %5, align 8, !tbaa !17
  %7 = load ptr, ptr %6, align 8, !tbaa !19
  %8 = tail call ptr %7(ptr noundef nonnull %6, ptr noundef %1, i32 noundef 0) #5
  %9 = getelementptr inbounds nuw i8, ptr %6, i64 56
  %10 = load ptr, ptr %9, align 8, !tbaa !3
  %11 = tail call ptr %10(ptr noundef nonnull %6, i64 noundef 32) #5
  %12 = icmp ne ptr %8, null
  %13 = icmp ne ptr %11, null
  %or.cond = select i1 %12, i1 %13, i1 false
  br i1 %or.cond, label %14, label %43

14:                                               ; preds = %4
  %15 = getelementptr inbounds nuw i8, ptr %11, i64 24
  store ptr %8, ptr %15, align 8, !tbaa !20
  call void @llvm.lifetime.start.p0(i64 8, ptr nonnull %3) #5
  %16 = getelementptr inbounds nuw i8, ptr %6, i64 16
  %17 = load ptr, ptr %16, align 8, !tbaa !25
  %18 = call i32 %17(ptr noundef nonnull %8, ptr noundef nonnull %3, i32 noundef 8) #5
  %.not.i = icmp eq i32 %18, 8
  br i1 %.not.i, label %19, label %szddd_read_headers.exit

19:                                               ; preds = %14
  %bcmp.i = call i32 @bcmp(ptr noundef nonnull dereferenceable(8) %3, ptr noundef nonnull dereferenceable(8) @szdd_signature_expand, i64 8)
  %20 = icmp eq i32 %bcmp.i, 0
  br i1 %20, label %21, label %32

21:                                               ; preds = %19
  store i32 0, ptr %11, align 8, !tbaa !26
  %22 = load ptr, ptr %16, align 8, !tbaa !25
  %23 = call i32 %22(ptr noundef nonnull %8, ptr noundef nonnull %3, i32 noundef 6) #5
  %.not14.i = icmp eq i32 %23, 6
  br i1 %.not14.i, label %24, label %szddd_read_headers.exit

24:                                               ; preds = %21
  %25 = load i8, ptr %3, align 4, !tbaa !27
  %.not15.i = icmp eq i8 %25, 65
  br i1 %.not15.i, label %26, label %szddd_read_headers.exit

26:                                               ; preds = %24
  %27 = getelementptr inbounds nuw i8, ptr %3, i64 1
  %28 = load i8, ptr %27, align 1, !tbaa !27
  %29 = getelementptr inbounds nuw i8, ptr %11, i64 16
  store i8 %28, ptr %29, align 8, !tbaa !28
  %30 = getelementptr inbounds nuw i8, ptr %3, i64 2
  %31 = load i32, ptr %30, align 2
  br label %.sink.split.i

32:                                               ; preds = %19
  %bcmp12.i = call i32 @bcmp(ptr noundef nonnull dereferenceable(8) %3, ptr noundef nonnull dereferenceable(8) @szdd_signature_qbasic, i64 8)
  %33 = icmp eq i32 %bcmp12.i, 0
  br i1 %33, label %34, label %szddd_read_headers.exit

34:                                               ; preds = %32
  store i32 1, ptr %11, align 8, !tbaa !26
  %35 = load ptr, ptr %16, align 8, !tbaa !25
  %36 = call i32 %35(ptr noundef nonnull %8, ptr noundef nonnull %3, i32 noundef 4) #5
  %.not13.i = icmp eq i32 %36, 4
  br i1 %.not13.i, label %37, label %szddd_read_headers.exit

37:                                               ; preds = %34
  %38 = getelementptr inbounds nuw i8, ptr %11, i64 16
  store i8 0, ptr %38, align 8, !tbaa !28
  %39 = load i32, ptr %3, align 4
  br label %.sink.split.i

.sink.split.i:                                    ; preds = %37, %26
  %.sink17.i = phi i32 [ %31, %26 ], [ %39, %37 ]
  %40 = zext i32 %.sink17.i to i64
  %41 = getelementptr inbounds nuw i8, ptr %11, i64 8
  store i64 %40, ptr %41, align 8, !tbaa !29
  br label %szddd_read_headers.exit

szddd_read_headers.exit:                          ; preds = %14, %21, %24, %32, %34, %.sink.split.i
  %.0.i = phi i32 [ 3, %14 ], [ 3, %21 ], [ 8, %24 ], [ 3, %34 ], [ 7, %32 ], [ 0, %.sink.split.i ]
  call void @llvm.lifetime.end.p0(i64 8, ptr nonnull %3) #5
  %42 = getelementptr inbounds nuw i8, ptr %0, i64 48
  store i32 %.0.i, ptr %42, align 8, !tbaa !18
  br label %47

43:                                               ; preds = %4
  br i1 %12, label %46, label %44

44:                                               ; preds = %43
  %45 = getelementptr inbounds nuw i8, ptr %0, i64 48
  store i32 2, ptr %45, align 8, !tbaa !18
  br label %46

46:                                               ; preds = %44, %43
  %.phi.trans.insert = getelementptr inbounds nuw i8, ptr %0, i64 48
  br i1 %13, label %._crit_edge, label %.thread

._crit_edge:                                      ; preds = %46
  %.pre = load i32, ptr %.phi.trans.insert, align 8, !tbaa !18
  br label %47

.thread:                                          ; preds = %46
  store i32 6, ptr %.phi.trans.insert, align 8, !tbaa !18
  br label %49

47:                                               ; preds = %._crit_edge, %szddd_read_headers.exit
  %48 = phi i32 [ %.pre, %._crit_edge ], [ %.0.i, %szddd_read_headers.exit ]
  %.not33 = icmp eq i32 %48, 0
  br i1 %.not33, label %56, label %49

49:                                               ; preds = %.thread, %47
  br i1 %12, label %50, label %53

50:                                               ; preds = %49
  %51 = getelementptr inbounds nuw i8, ptr %6, i64 8
  %52 = load ptr, ptr %51, align 8, !tbaa !30
  call void %52(ptr noundef nonnull %8) #5
  br label %53

53:                                               ; preds = %50, %49
  %54 = getelementptr inbounds nuw i8, ptr %6, i64 64
  %55 = load ptr, ptr %54, align 8, !tbaa !31
  call void %55(ptr noundef %11) #5
  br label %56

56:                                               ; preds = %47, %53, %2
  %.0 = phi ptr [ null, %2 ], [ null, %53 ], [ %11, %47 ]
  ret ptr %.0
}